Certificate:
    Data:
        Version: 3 (0x2)
        Serial Number: 1 (0x1)
    Signature Algorithm: sha1WithRSAEncryption
        Issuer: C=cn, ST=shanghai, O=no1.ca, OU=section1, CN=no1ca.com/emailAddress=tiger@no1ca.com
        Validity
            Not Before: Nov 19 05:00:52 2015 GMT
            Not After : Nov 18 05:00:52 2018 GMT
        Subject: C=cn, ST=shanghai, O=no1.ca, OU=section1, CN=no1ca.com/emailAddress=tiger@no1ca.com
        Subject Public Key Info:
            Public Key Algorithm: rsaEncryption
                Public-Key: (2048 bit)
                Modulus:
                    00:bb:d1:20:2c:f0:fa:67:a2:d3:e3:98:11:a2:97:
                    23:9f:e5:72:3a:c5:d0:00:33:50:18:e1:0d:b0:3a:
                    d6:98:cb:23:ef:aa:e3:93:71:c9:82:8d:d1:c2:e1:
                    23:9b:5d:85:4a:72:f3:11:69:3f:1c:53:d4:39:2a:
                    f2:84:83:aa:48:c6:57:d5:e0:27:10:a6:91:f1:2e:
                    ee:4f:77:e7:6c:30:24:d7:1c:0d:8a:aa:27:3c:da:
                    86:7a:89:0c:15:89:f3:ea:b2:a0:27:5a:18:90:e6:
                    78:7e:05:cd:0c:60:f9:77:f3:a0:99:1c:cf:1a:77:
                    49:88:c2:b4:20:03:98:06:92:4a:f8:4b:d8:bb:91:
                    cd:47:39:6e:bb:73:5c:14:2d:cb:99:06:11:89:0f:
                    e0:cf:b7:b8:4c:c5:bb:8e:8b:60:36:8f:60:50:af:
                    d5:49:03:b0:7a:24:87:d1:bc:4f:48:99:7e:13:31:
                    3f:e1:42:ef:97:b9:1f:e5:73:df:14:17:0c:ac:79:
                    c2:26:74:85:7e:88:02:ff:e9:04:37:45:e2:68:a2:
                    e5:b3:8c:d8:93:c8:04:5b:fd:c9:b8:c9:5d:33:61:
                    a5:a2:ff:fb:e2:10:23:c6:84:e3:c3:ba:b6:b6:8d:
                    c3:6c:05:6b:6f:bc:97:7f:91:5b:fc:08:80:00:be:
                    7c:fd
                Exponent: 65537 (0x10001)
        X509v3 extensions:
            X509v3 Subject Key Identifier: 
                E2:C8:45:1B:77:F9:1B:5E:F9:C9:AF:10:7E:BD:4D:D9:1F:8B:2F:16
            X509v3 Authority Key Identifier: 
                keyid:E2:C8:45:1B:77:F9:1B:5E:F9:C9:AF:10:7E:BD:4D:D9:1F:8B:2F:16

            X509v3 Basic Constraints: 
                CA:TRUE
    Signature Algorithm: sha1WithRSAEncryption
         29:37:67:77:c0:cc:1b:c3:81:91:14:d0:1b:ae:f2:7b:5d:e8:
         27:4b:c8:be:78:bd:d1:44:07:24:b5:73:ef:1b:59:cf:68:f2:
         61:f9:3f:b8:00:78:a0:8f:4e:95:da:7f:84:84:6c:57:4d:dd:
         d7:da:77:12:54:91:b7:3a:ee:a3:93:8a:55:ad:e3:c6:0b:0a:
         3e:99:1e:de:a4:f4:e2:c9:72:b6:79:da:7c:2b:34:b9:cf:74:
         db:11:54:42:c3:c3:3c:d6:c1:25:54:de:77:a7:b4:7a:6a:ee:
         59:5e:a8:3b:2d:79:d6:4a:de:9b:ac:eb:63:7d:bb:23:f8:15:
         ad:ce:14:13:78:70:c1:de:47:8b:d8:27:79:62:a9:42:9a:cd:
         75:97:37:cf:d4:97:04:f0:c2:f1:91:75:bf:61:43:df:78:e7:
         a3:70:2e:d8:d0:76:82:98:4b:0c:4e:ef:5f:4e:93:8e:b0:fc:
         15:e1:00:34:90:d3:5e:a5:f5:af:1f:e2:9a:e2:12:67:9f:8a:
         77:02:71:75:c8:c0:a8:1a:36:73:aa:ea:67:35:41:c2:5c:78:
         dc:13:01:d6:93:3f:d6:99:5b:08:0f:82:2e:78:1e:5f:64:82:
         f7:aa:32:78:a8:e8:93:e1:d0:52:78:ee:57:60:7a:a1:22:86:
         9d:92:5c:5c
-----BEGIN CERTIFICATE-----
MIIDuzCCAqOgAwIBAgIBATANBgkqhkiG9w0BAQUFADB4MQswCQYDVQQGEwJjbjER
MA8GA1UECAwIc2hhbmdoYWkxDzANBgNVBAoMBm5vMS5jYTERMA8GA1UECwwIc2Vj
dGlvbjExEjAQBgNVBAMMCW5vMWNhLmNvbTEeMBwGCSqGSIb3DQEJARYPdGlnZXJA
bm8xY2EuY29tMB4XDTE1MTExOTA1MDA1MloXDTE4MTExODA1MDA1MloweDELMAkG
A1UEBhMCY24xETAPBgNVBAgMCHNoYW5naGFpMQ8wDQYDVQQKDAZubzEuY2ExETAP
BgNVBAsMCHNlY3Rpb24xMRIwEAYDVQQDDAlubzFjYS5jb20xHjAcBgkqhkiG9w0B
CQEWD3RpZ2VyQG5vMWNhLmNvbTCCASIwDQYJKoZIhvcNAQEBBQADggEPADCCAQoC
ggEBALvRICzw+mei0+OYEaKXI5/lcjrF0AAzUBjhDbA61pjLI++q45NxyYKN0cLh
I5tdhUpy8xFpPxxT1Dkq8oSDqkjGV9XgJxCmkfEu7k9352wwJNccDYqqJzzahnqJ
DBWJ8+qyoCdaGJDmeH4FzQxg+XfzoJkczxp3SYjCtCADmAaSSvhL2LuRzUc5brtz
XBQty5kGEYkP4M+3uEzFu46LYDaPYFCv1UkDsHokh9G8T0iZfhMxP+FC75e5H+Vz
3xQXDKx5wiZ0hX6IAv/pBDdF4mii5bOM2JPIBFv9ybjJXTNhpaL/++IQI8aE48O6
traNw2wFa2+8l3+RW/wIgAC+fP0CAwEAAaNQME4wHQYDVR0OBBYEFOLIRRt3+Rte
+cmvEH69Tdkfiy8WMB8GA1UdIwQYMBaAFOLIRRt3+Rte+cmvEH69Tdkfiy8WMAwG
A1UdEwQFMAMBAf8wDQYJKoZIhvcNAQEFBQADggEBACk3Z3fAzBvDgZEU0Buu8ntd
6CdLyL54vdFEByS1c+8bWc9o8mH5P7gAeKCPTpXaf4SEbFdN3dfadxJUkbc67qOT
ilWt48YLCj6ZHt6k9OLJcrZ52nwrNLnPdNsRVELDwzzWwSVU3nentHpq7lleqDst
edZK3pus62N9uyP4Fa3OFBN4cMHeR4vYJ3liqUKazXWXN8/UlwTwwvGRdb9hQ994
56NwLtjQdoKYSwxO719Ok46w/BXhADSQ016l9a8f4priEmefincCcXXIwKgaNnOq
6mc1QcJceNwTAdaTP9aZWwgPgi54Hl9kgveqMnio6JPh0FJ47ldgeqEihp2SXFw=
-----END CERTIFICATE-----
